; Function Attrs: null_pointer_is_valid sspstrong uwtable
define internal i32 @stringz_addr_to_str(ptr noundef readonly captures(none) %0, ptr noundef %1, i32 noundef %2) #6 {
  %4 = getelementptr inbounds nuw i8, ptr %0, i64 8
  %5 = load ptr, ptr %4, align 8
  %6 = sext i32 %2 to i64
  %7 = tail call i64 @g_strlcpy(ptr noundef %1, ptr noundef %5, i64 noundef %6)
  %8 = tail call i64 @strlen(ptr noundef %1) #17
  %9 = trunc i64 %8 to i32
  %10 = add i32 %9, 1
  ret i32 %10
}